target datalayout = "e-m:e-p270:32:32-p271:32:32-p272:64:64-i64:64-i128:128-f80:128-n8:16:32:64-S128"
target triple = "x86_64-pc-linux-gnu"

%class.JVMState = type { ptr, i32, i32, i32, i32, i32, i32, i32, i32, i32, ptr, ptr }

; Function Attrs: mustprogress nounwind uwtable
define linkonce_odr hidden noundef ptr @_ZNK8JVMState6callerEv(ptr noundef nonnull align 8 dereferenceable(64) %0) #1 comdat align 2 {
  %2 = alloca ptr, align 8
  store ptr %0, ptr %2, align 8
  %3 = load ptr, ptr %2, align 8
  %4 = getelementptr inbounds %class.JVMState, ptr %3, i32 0, i32 0
  %5 = load ptr, ptr %4, align 8
  ret ptr %5
}

; Function Attrs: mustprogress nounwind uwtable
define linkonce_odr hidden noundef i32 @_ZNK8JVMState5depthEv(ptr noundef nonnull align 8 dereferenceable(64) %0) #1 comdat align 2 {
  %2 = alloca ptr, align 8
  store ptr %0, ptr %2, align 8
  %3 = load ptr, ptr %2, align 8
  %4 = getelementptr inbounds %class.JVMState, ptr %3, i32 0, i32 1
  %5 = load i32, ptr %4, align 8
  ret i32 %5
}

; Function Attrs: mustprogress nounwind uwtable
define hidden noundef zeroext i1 @_ZNK8JVMState13same_calls_asEPKS_(ptr noundef nonnull align 8 dereferenceable(64) %0, ptr noundef %1) #1 align 2 {
  %3 = alloca i1, align 1
  %4 = alloca ptr, align 8
  %5 = alloca ptr, align 8
  %6 = alloca ptr, align 8
  %7 = alloca ptr, align 8
  store ptr %0, ptr %4, align 8
  store ptr %1, ptr %5, align 8
  %8 = load ptr, ptr %4, align 8
  %9 = load ptr, ptr %5, align 8
  %10 = icmp eq ptr %8, %9
  br i1 %10, label %11, label %12

11:                                               ; preds = %2
  store i1 true, ptr %3, align 1
  br label %63

12:                                               ; preds = %2
  %13 = call noundef i32 @_ZNK8JVMState5depthEv(ptr noundef nonnull align 8 dereferenceable(64) %8)
  %14 = load ptr, ptr %5, align 8
  %15 = call noundef i32 @_ZNK8JVMState5depthEv(ptr noundef nonnull align 8 dereferenceable(64) %14)
  %16 = icmp ne i32 %13, %15
  br i1 %16, label %17, label %18

17:                                               ; preds = %12
  store i1 false, ptr %3, align 1
  br label %63

18:                                               ; preds = %12
  store ptr %8, ptr %6, align 8
  %19 = load ptr, ptr %5, align 8
  store ptr %19, ptr %7, align 8
  br label %20

20:                                               ; preds = %62, %18
  %21 = load ptr, ptr %6, align 8
  %22 = getelementptr inbounds %class.JVMState, ptr %21, i32 0, i32 10
  %23 = load ptr, ptr %22, align 8
  %24 = load ptr, ptr %7, align 8
  %25 = getelementptr inbounds %class.JVMState, ptr %24, i32 0, i32 10
  %26 = load ptr, ptr %25, align 8
  %27 = icmp ne ptr %23, %26
  br i1 %27, label %28, label %29

28:                                               ; preds = %20
  store i1 false, ptr %3, align 1
  br label %63

29:                                               ; preds = %20
  %30 = load ptr, ptr %6, align 8
  %31 = getelementptr inbounds %class.JVMState, ptr %30, i32 0, i32 10
  %32 = load ptr, ptr %31, align 8
  %33 = icmp eq ptr %32, null
  br i1 %33, label %34, label %35

34:                                               ; preds = %29
  store i1 true, ptr %3, align 1
  br label %63

35:                                               ; preds = %29
  %36 = load ptr, ptr %6, align 8
  %37 = getelementptr inbounds %class.JVMState, ptr %36, i32 0, i32 8
  %38 = load i32, ptr %37, align 4
  %39 = load ptr, ptr %7, align 8
  %40 = getelementptr inbounds %class.JVMState, ptr %39, i32 0, i32 8
  %41 = load i32, ptr %40, align 4
  %42 = icmp ne i32 %38, %41
  br i1 %42, label %43, label %44

43:                                               ; preds = %35
  store i1 false, ptr %3, align 1
  br label %63

44:                                               ; preds = %35
  %45 = load ptr, ptr %6, align 8
  %46 = getelementptr inbounds %class.JVMState, ptr %45, i32 0, i32 9
  %47 = load i32, ptr %46, align 8
  %48 = load ptr, ptr %7, align 8
  %49 = getelementptr inbounds %class.JVMState, ptr %48, i32 0, i32 9
  %50 = load i32, ptr %49, align 8
  %51 = icmp ne i32 %47, %50
  br i1 %51, label %52, label %53

52:                                               ; preds = %44
  store i1 false, ptr %3, align 1
  br label %63

53:                                               ; preds = %44
  %54 = load ptr, ptr %6, align 8
  %55 = call noundef ptr @_ZNK8JVMState6callerEv(ptr noundef nonnull align 8 dereferenceable(64) %54)
  store ptr %55, ptr %6, align 8
  %56 = load ptr, ptr %7, align 8
  %57 = call noundef ptr @_ZNK8JVMState6callerEv(ptr noundef nonnull align 8 dereferenceable(64) %56)
  store ptr %57, ptr %7, align 8
  %58 = load ptr, ptr %6, align 8
  %59 = load ptr, ptr %7, align 8
  %60 = icmp eq ptr %58, %59
  br i1 %60, label %61, label %62

61:                                               ; preds = %53
  store i1 true, ptr %3, align 1
  br label %63

62:                                               ; preds = %53
  br label %20, !llvm.loop !8

63:                                               ; preds = %61, %52, %43, %34, %28, %17, %11
  %64 = load i1, ptr %3, align 1
  ret i1 %64
}