; Function Attrs: mustprogress nofree norecurse nosync nounwind willreturn memory(read, inaccessiblemem: none) uwtable
define hidden noundef zeroext i1 @_ZNK8JVMState13same_calls_asEPKS_(ptr noundef nonnull readonly align 8 dereferenceable(64) %0, ptr noundef readonly %1) local_unnamed_addr #4 align 2 {
  %3 = icmp eq ptr %0, %1
  br i1 %3, label %.loopexit, label %4

4:                                                ; preds = %2
  %5 = getelementptr inbounds i8, ptr %0, i64 8
  %6 = load i32, ptr %5, align 8
  %7 = getelementptr inbounds i8, ptr %1, i64 8
  %8 = load i32, ptr %7, align 8
  %.not = icmp eq i32 %6, %8
  br i1 %.not, label %.preheader, label %.loopexit

.preheader:                                       ; preds = %4, %25
  %.016 = phi ptr [ %26, %25 ], [ %0, %4 ]
  %.0 = phi ptr [ %27, %25 ], [ %1, %4 ]
  %9 = getelementptr inbounds i8, ptr %.016, i64 48
  %10 = load ptr, ptr %9, align 8
  %11 = getelementptr inbounds i8, ptr %.0, i64 48
  %12 = load ptr, ptr %11, align 8
  %.not23 = icmp eq ptr %10, %12
  br i1 %.not23, label %13, label %.loopexit

13:                                               ; preds = %.preheader
  %14 = icmp eq ptr %10, null
  br i1 %14, label %.loopexit, label %15

15:                                               ; preds = %13
  %16 = getelementptr inbounds i8, ptr %.016, i64 36
  %17 = load i32, ptr %16, align 4
  %18 = getelementptr inbounds i8, ptr %.0, i64 36
  %19 = load i32, ptr %18, align 4
  %.not24 = icmp eq i32 %17, %19
  br i1 %.not24, label %20, label %.loopexit

20:                                               ; preds = %15
  %21 = getelementptr inbounds i8, ptr %.016, i64 40
  %22 = load i32, ptr %21, align 8
  %23 = getelementptr inbounds i8, ptr %.0, i64 40
  %24 = load i32, ptr %23, align 8
  %.not25 = icmp eq i32 %22, %24
  br i1 %.not25, label %25, label %.loopexit

25:                                               ; preds = %20
  %26 = load ptr, ptr %.016, align 8
  %27 = load ptr, ptr %.0, align 8
  %28 = icmp eq ptr %26, %27
  br i1 %28, label %.loopexit, label %.preheader, !llvm.loop !8

.loopexit:                                        ; preds = %25, %20, %15, %13, %.preheader, %4, %2
  %.017 = phi i1 [ true, %2 ], [ false, %4 ], [ true, %25 ], [ false, %20 ], [ false, %15 ], [ true, %13 ], [ false, %.preheader ]
  ret i1 %.017
}